; ModuleID = '32/2078.c'
source_filename = "32/2078.c"
target datalayout = "e-m:e-p270:32:32-p271:32:32-p272:64:64-i64:64-f80:128-n8:16:32:64-S128"
target triple = "x86_64-pc-linux-gnu"

@.str = private unnamed_addr constant [3 x i8] c"%d\00", align 1
@.str.1 = private unnamed_addr constant [4 x i8] c"%s\0A\00", align 1
@.str.2 = private unnamed_addr constant [3 x i8] c"%s\00", align 1
@.str.3 = private unnamed_addr constant [2 x i8] c"\0A\00", align 1

; Function Attrs: noinline nounwind uwtable
define dso_local void @main() #0 {
  %1 = alloca i32, align 4
  %2 = alloca i32, align 4
  %3 = alloca i32, align 4
  %4 = alloca i32, align 4
  %5 = alloca i32, align 4
  %6 = alloca i32, align 4
  %7 = alloca i32, align 4
  %8 = alloca [100 x i8], align 16
  %9 = alloca [100 x i8], align 16
  %10 = bitcast [100 x i8]* %8 to i8*
  call void @llvm.memset.p0i8.i64(i8* align 16 %10, i8 0, i64 100, i1 false)
  %11 = bitcast [100 x i8]* %9 to i8*
  call void @llvm.memset.p0i8.i64(i8* align 16 %11, i8 0, i64 100, i1 false)
  %12 = call i32 (i8*, ...) @__isoc99_scanf(i8* getelementptr inbounds ([3 x i8], [3 x i8]* @.str, i64 0, i64 0), i32* %1)
  store i32 1, i32* %3, align 4
  br label %13

13:                                               ; preds = %131, %0
  %14 = load i32, i32* %3, align 4
  %15 = load i32, i32* %1, align 4
  %16 = icmp sle i32 %14, %15
  br i1 %16, label %17, label %134

17:                                               ; preds = %13
  %18 = getelementptr inbounds [100 x i8], [100 x i8]* %8, i64 0, i64 0
  %19 = call i32 (i8*, ...) @__isoc99_scanf(i8* getelementptr inbounds ([4 x i8], [4 x i8]* @.str.1, i64 0, i64 0), i8* %18)
  %20 = getelementptr inbounds [100 x i8], [100 x i8]* %9, i64 0, i64 0
  %21 = call i32 (i8*, ...) @__isoc99_scanf(i8* getelementptr inbounds ([3 x i8], [3 x i8]* @.str.2, i64 0, i64 0), i8* %20)
  %22 = getelementptr inbounds [100 x i8], [100 x i8]* %8, i64 0, i64 0
  %23 = call i64 @strlen(i8* %22) #4
  %24 = trunc i64 %23 to i32
  store i32 %24, i32* %5, align 4
  %25 = getelementptr inbounds [100 x i8], [100 x i8]* %9, i64 0, i64 0
  %26 = call i64 @strlen(i8* %25) #4
  %27 = trunc i64 %26 to i32
  store i32 %27, i32* %6, align 4
  %28 = load i32, i32* %5, align 4
  %29 = sub nsw i32 %28, 1
  store i32 %29, i32* %2, align 4
  %30 = load i32, i32* %6, align 4
  %31 = sub nsw i32 %30, 1
  store i32 %31, i32* %4, align 4
  br label %32

32:                                               ; preds = %124, %17
  %33 = load i32, i32* %4, align 4
  %34 = icmp sge i32 %33, 0
  br i1 %34, label %35, label %127

35:                                               ; preds = %32
  %36 = load i32, i32* %2, align 4
  %37 = sext i32 %36 to i64
  %38 = getelementptr inbounds [100 x i8], [100 x i8]* %8, i64 0, i64 %37
  %39 = load i8, i8* %38, align 1
  %40 = sext i8 %39 to i32
  %41 = load i32, i32* %4, align 4
  %42 = sext i32 %41 to i64
  %43 = getelementptr inbounds [100 x i8], [100 x i8]* %9, i64 0, i64 %42
  %44 = load i8, i8* %43, align 1
  %45 = sext i8 %44 to i32
  %46 = icmp sge i32 %40, %45
  br i1 %46, label %47, label %64

47:                                               ; preds = %35
  %48 = load i32, i32* %2, align 4
  %49 = sext i32 %48 to i64
  %50 = getelementptr inbounds [100 x i8], [100 x i8]* %8, i64 0, i64 %49
  %51 = load i8, i8* %50, align 1
  %52 = sext i8 %51 to i32
  %53 = load i32, i32* %4, align 4
  %54 = sext i32 %53 to i64
  %55 = getelementptr inbounds [100 x i8], [100 x i8]* %9, i64 0, i64 %54
  %56 = load i8, i8* %55, align 1
  %57 = sext i8 %56 to i32
  %58 = sub nsw i32 %52, %57
  %59 = add nsw i32 %58, 48
  %60 = trunc i32 %59 to i8
  %61 = load i32, i32* %2, align 4
  %62 = sext i32 %61 to i64
  %63 = getelementptr inbounds [100 x i8], [100 x i8]* %8, i64 0, i64 %62
  store i8 %60, i8* %63, align 1
  br label %121

64:                                               ; preds = %35
  %65 = load i32, i32* %2, align 4
  %66 = sext i32 %65 to i64
  %67 = getelementptr inbounds [100 x i8], [100 x i8]* %8, i64 0, i64 %66
  %68 = load i8, i8* %67, align 1
  %69 = sext i8 %68 to i32
  %70 = load i32, i32* %4, align 4
  %71 = sext i32 %70 to i64
  %72 = getelementptr inbounds [100 x i8], [100 x i8]* %9, i64 0, i64 %71
  %73 = load i8, i8* %72, align 1
  %74 = sext i8 %73 to i32
  %75 = sub nsw i32 %69, %74
  %76 = add nsw i32 %75, 58
  %77 = trunc i32 %76 to i8
  %78 = load i32, i32* %2, align 4
  %79 = sext i32 %78 to i64
  %80 = getelementptr inbounds [100 x i8], [100 x i8]* %8, i64 0, i64 %79
  store i8 %77, i8* %80, align 1
  %81 = load i32, i32* %2, align 4
  %82 = sub nsw i32 %81, 1
  store i32 %82, i32* %7, align 4
  br label %83

83:                                               ; preds = %117, %64
  %84 = load i32, i32* %7, align 4
  %85 = icmp sge i32 %84, 0
  br i1 %85, label %86, label %120

86:                                               ; preds = %83
  %87 = load i32, i32* %7, align 4
  %88 = sext i32 %87 to i64
  %89 = getelementptr inbounds [100 x i8], [100 x i8]* %8, i64 0, i64 %88
  %90 = load i8, i8* %89, align 1
  %91 = sext i8 %90 to i32
  %92 = icmp sge i32 %91, 49
  br i1 %92, label %93, label %104

93:                                               ; preds = %86
  %94 = load i32, i32* %7, align 4
  %95 = sext i32 %94 to i64
  %96 = getelementptr inbounds [100 x i8], [100 x i8]* %8, i64 0, i64 %95
  %97 = load i8, i8* %96, align 1
  %98 = sext i8 %97 to i32
  %99 = sub nsw i32 %98, 1
  %100 = trunc i32 %99 to i8
  %101 = load i32, i32* %7, align 4
  %102 = sext i32 %101 to i64
  %103 = getelementptr inbounds [100 x i8], [100 x i8]* %8, i64 0, i64 %102
  store i8 %100, i8* %103, align 1
  br label %120

104:                                              ; preds = %86
  %105 = load i32, i32* %7, align 4
  %106 = sext i32 %105 to i64
  %107 = getelementptr inbounds [100 x i8], [100 x i8]* %8, i64 0, i64 %106
  %108 = load i8, i8* %107, align 1
  %109 = sext i8 %108 to i32
  %110 = icmp eq i32 %109, 48
  br i1 %110, label %111, label %115

111:                                              ; preds = %104
  %112 = load i32, i32* %7, align 4
  %113 = sext i32 %112 to i64
  %114 = getelementptr inbounds [100 x i8], [100 x i8]* %8, i64 0, i64 %113
  store i8 57, i8* %114, align 1
  br label %115

115:                                              ; preds = %111, %104
  br label %116

116:                                              ; preds = %115
  br label %117

117:                                              ; preds = %116
  %118 = load i32, i32* %7, align 4
  %119 = add nsw i32 %118, -1
  store i32 %119, i32* %7, align 4
  br label %83

120:                                              ; preds = %93, %83
  br label %121

121:                                              ; preds = %120, %47
  %122 = load i32, i32* %2, align 4
  %123 = add nsw i32 %122, -1
  store i32 %123, i32* %2, align 4
  br label %124

124:                                              ; preds = %121
  %125 = load i32, i32* %4, align 4
  %126 = add nsw i32 %125, -1
  store i32 %126, i32* %4, align 4
  br label %32

127:                                              ; preds = %32
  %128 = getelementptr inbounds [100 x i8], [100 x i8]* %8, i64 0, i64 0
  %129 = call i32 (i8*, ...) @printf(i8* getelementptr inbounds ([3 x i8], [3 x i8]* @.str.2, i64 0, i64 0), i8* %128)
  %130 = call i32 (i8*, ...) @printf(i8* getelementptr inbounds ([2 x i8], [2 x i8]* @.str.3, i64 0, i64 0))
  br label %131

131:                                              ; preds = %127
  %132 = load i32, i32* %3, align 4
  %133 = add nsw i32 %132, 1
  store i32 %133, i32* %3, align 4
  br label %13

134:                                              ; preds = %13
  ret void
}

; Function Attrs: argmemonly nounwind willreturn
declare void @llvm.memset.p0i8.i64(i8* nocapture writeonly, i8, i64, i1 immarg) #1

declare dso_local i32 @__isoc99_scanf(i8*, ...) #2

; Function Attrs: nounwind readonly
declare dso_local i64 @strlen(i8*) #3

declare dso_local i32 @printf(i8*, ...) #2


!llvm.module.flags = !{!0}
!llvm.ident = !{!1}

!0 = !{i32 1, !"wchar_size", i32 4}
!1 = !{!"clang version 10.0.0-4ubuntu1 "}
