; ModuleID = 'source-C-CXX/31/2078.c'
source_filename = "source-C-CXX/31/2078.c"
target datalayout = "e-m:e-p270:32:32-p271:32:32-p272:64:64-i64:64-f80:128-n8:16:32:64-S128"
target triple = "x86_64-pc-linux-gnu"

@.str = private unnamed_addr constant [3 x i8] c"%d\00", align 1
@.str.1 = private unnamed_addr constant [4 x i8] c"%s\0A\00", align 1
@.str.2 = private unnamed_addr constant [3 x i8] c"%s\00", align 1

; Function Attrs: nofree nounwind sspstrong uwtable
define dso_local void @main() local_unnamed_addr #0 {
  %1 = alloca i32, align 4
  %2 = alloca [100 x i8], align 16
  %3 = alloca [100 x i8], align 16
  %4 = bitcast i32* %1 to i8*
  call void @llvm.lifetime.start.p0i8(i64 4, i8* nonnull %4) #6
  %5 = getelementptr inbounds [100 x i8], [100 x i8]* %2, i64 0, i64 0
  call void @llvm.lifetime.start.p0i8(i64 100, i8* nonnull %5) #6
  call void @llvm.memset.p0i8.i64(i8* noundef nonnull align 16 dereferenceable(100) %5, i8 0, i64 100, i1 false)
  %6 = getelementptr inbounds [100 x i8], [100 x i8]* %3, i64 0, i64 0
  call void @llvm.lifetime.start.p0i8(i64 100, i8* nonnull %6) #6
  call void @llvm.memset.p0i8.i64(i8* noundef nonnull align 16 dereferenceable(100) %6, i8 0, i64 100, i1 false)
  %7 = call i32 (i8*, ...) @__isoc99_scanf(i8* getelementptr inbounds ([3 x i8], [3 x i8]* @.str, i64 0, i64 0), i32* nonnull %1)
  %8 = load i32, i32* %1, align 4, !tbaa !5
  %9 = icmp slt i32 %8, 1
  br i1 %9, label %67, label %10

10:                                               ; preds = %0, %61
  %11 = phi i32 [ %64, %61 ], [ 1, %0 ]
  %12 = call i32 (i8*, ...) @__isoc99_scanf(i8* getelementptr inbounds ([4 x i8], [4 x i8]* @.str.1, i64 0, i64 0), i8* nonnull %5)
  %13 = call i32 (i8*, ...) @__isoc99_scanf(i8* getelementptr inbounds ([3 x i8], [3 x i8]* @.str.2, i64 0, i64 0), i8* nonnull %6)
  %14 = call i64 @strlen(i8* noundef nonnull %6) #7
  %15 = trunc i64 %14 to i32
  %16 = icmp sgt i32 %15, 0
  br i1 %16, label %17, label %61

17:                                               ; preds = %10
  %18 = call i64 @strlen(i8* noundef nonnull %5) #7
  %19 = and i64 %14, 4294967295
  %20 = shl i64 %18, 32
  %21 = ashr exact i64 %20, 32
  br label %22

22:                                               ; preds = %17, %58
  %23 = phi i64 [ %21, %17 ], [ %26, %58 ]
  %24 = phi i64 [ %19, %17 ], [ %60, %58 ]
  %25 = phi i32 [ %15, %17 ], [ %27, %58 ]
  %26 = add nsw i64 %23, -1
  %27 = add nsw i32 %25, -1
  %28 = getelementptr inbounds [100 x i8], [100 x i8]* %2, i64 0, i64 %26
  %29 = load i8, i8* %28, align 1, !tbaa !9
  %30 = zext i32 %27 to i64
  %31 = getelementptr inbounds [100 x i8], [100 x i8]* %3, i64 0, i64 %30
  %32 = load i8, i8* %31, align 1, !tbaa !9
  %33 = icmp slt i8 %29, %32
  br i1 %33, label %37, label %34

34:                                               ; preds = %22
  %35 = add i8 %29, 48
  %36 = sub i8 %35, %32
  store i8 %36, i8* %28, align 1, !tbaa !9
  br label %58

37:                                               ; preds = %22
  %38 = add i8 %29, 58
  %39 = sub i8 %38, %32
  store i8 %39, i8* %28, align 1, !tbaa !9
  %40 = icmp sgt i64 %23, 1
  br i1 %40, label %41, label %58

41:                                               ; preds = %37
  %42 = trunc i64 %23 to i32
  %43 = add i32 %42, -2
  br label %44

44:                                               ; preds = %41, %55
  %45 = phi i32 [ %56, %55 ], [ %43, %41 ]
  %46 = zext i32 %45 to i64
  %47 = getelementptr inbounds [100 x i8], [100 x i8]* %2, i64 0, i64 %46
  %48 = load i8, i8* %47, align 1, !tbaa !9
  %49 = icmp sgt i8 %48, 48
  br i1 %49, label %50, label %52

50:                                               ; preds = %44
  %51 = add nsw i8 %48, -1
  store i8 %51, i8* %47, align 1, !tbaa !9
  br label %58

52:                                               ; preds = %44
  %53 = icmp eq i8 %48, 48
  br i1 %53, label %54, label %55

54:                                               ; preds = %52
  store i8 57, i8* %47, align 1, !tbaa !9
  br label %55

55:                                               ; preds = %54, %52
  %56 = add nsw i32 %45, -1
  %57 = icmp sgt i32 %45, 0
  br i1 %57, label %44, label %58, !llvm.loop !10

58:                                               ; preds = %55, %37, %50, %34
  %59 = icmp sgt i64 %24, 1
  %60 = add nsw i64 %24, -1
  br i1 %59, label %22, label %61, !llvm.loop !12

61:                                               ; preds = %58, %10
  %62 = call i32 (i8*, ...) @printf(i8* nonnull dereferenceable(1) getelementptr inbounds ([3 x i8], [3 x i8]* @.str.2, i64 0, i64 0), i8* nonnull %5)
  %63 = call i32 @putchar(i32 10)
  %64 = add nuw nsw i32 %11, 1
  %65 = load i32, i32* %1, align 4, !tbaa !5
  %66 = icmp slt i32 %11, %65
  br i1 %66, label %10, label %67, !llvm.loop !13

67:                                               ; preds = %61, %0
  call void @llvm.lifetime.end.p0i8(i64 100, i8* nonnull %6) #6
  call void @llvm.lifetime.end.p0i8(i64 100, i8* nonnull %5) #6
  call void @llvm.lifetime.end.p0i8(i64 4, i8* nonnull %4) #6
  ret void
}

; Function Attrs: argmemonly mustprogress nofree nosync nounwind willreturn
declare void @llvm.lifetime.start.p0i8(i64 immarg, i8* nocapture) #1

; Function Attrs: argmemonly mustprogress nofree nounwind willreturn writeonly
declare void @llvm.memset.p0i8.i64(i8* nocapture writeonly, i8, i64, i1 immarg) #2

; Function Attrs: nofree nounwind
declare noundef i32 @__isoc99_scanf(i8* nocapture noundef readonly, ...) local_unnamed_addr #3

; Function Attrs: argmemonly mustprogress nofree nounwind readonly willreturn
declare i64 @strlen(i8* nocapture) local_unnamed_addr #4

; Function Attrs: nofree nounwind
declare noundef i32 @printf(i8* nocapture noundef readonly, ...) local_unnamed_addr #3

; Function Attrs: argmemonly mustprogress nofree nosync nounwind willreturn
declare void @llvm.lifetime.end.p0i8(i64 immarg, i8* nocapture) #1

; Function Attrs: nofree nounwind
declare noundef i32 @putchar(i32 noundef) local_unnamed_addr #5


!llvm.module.flags = !{!0, !1, !2, !3}
!llvm.ident = !{!4}

!0 = !{i32 1, !"wchar_size", i32 4}
!1 = !{i32 7, !"PIC Level", i32 2}
!2 = !{i32 7, !"PIE Level", i32 2}
!3 = !{i32 7, !"uwtable", i32 1}
!4 = !{!"clang version 13.0.0"}
!5 = !{!6, !6, i64 0}
!6 = !{!"int", !7, i64 0}
!7 = !{!"omnipotent char", !8, i64 0}
!8 = !{!"Simple C/C++ TBAA"}
!9 = !{!7, !7, i64 0}
!10 = distinct !{!10, !11}
!11 = !{!"llvm.loop.mustprogress"}
!12 = distinct !{!12, !11}
!13 = distinct !{!13, !11}
